target datalayout = "e-m:e-p270:32:32-p271:32:32-p272:64:64-i64:64-i128:128-f80:128-n8:16:32:64-S128"
target triple = "x86_64-pc-linux-gnu"

%struct.DdManager = type { %struct.DdNode, ptr, ptr, ptr, ptr, ptr, ptr, ptr, i32, i32, double, double, double, i32, i32, i32, i32, i32, i32, ptr, ptr, %struct.DdSubtable, i32, i32, i32, i32, i32, i32, i32, double, i32, i32, i32, ptr, i64, double, i32, ptr, ptr, ptr, ptr, ptr, ptr, ptr, i32, ptr, ptr, ptr, ptr, ptr, ptr, i32, i32, i32, double, i32, i32, i32, i32, double, double, i32, i32, i32, i32, i32, i32, i32, i32, i32, ptr, ptr, i32, i32, i32, i32, i32, i32, ptr, ptr, ptr, ptr, ptr, ptr, ptr, ptr, i32, i64, i64, i64, i32, i64, i64, double, double, double, double, double, double, i32, ptr, ptr, i64 }
%struct.DdNode = type { i32, i32, ptr, %union.anon, i64 }
%union.anon = type { %struct.DdChildren }
%struct.DdChildren = type { ptr, ptr }
%struct.DdSubtable = type { ptr, i32, i32, i32, i32, i32, i32, i32, i32, i32, i32, i32 }

; Function Attrs: nounwind uwtable
define ptr @Cudd_addPermute(ptr noundef %0, ptr noundef %1, ptr noundef %2) #0 {
  %4 = alloca ptr, align 8
  %5 = alloca ptr, align 8
  %6 = alloca ptr, align 8
  %7 = alloca ptr, align 8
  %8 = alloca ptr, align 8
  %9 = alloca ptr, align 8
  %10 = alloca i32, align 4
  store ptr %0, ptr %5, align 8, !tbaa !3
  store ptr %1, ptr %6, align 8, !tbaa !8
  store ptr %2, ptr %7, align 8, !tbaa !37
  call void @llvm.lifetime.start.p0(i64 8, ptr %8) #6
  call void @llvm.lifetime.start.p0(i64 8, ptr %9) #6
  br label %11

11:                                               ; preds = %37, %3
  %12 = load ptr, ptr %5, align 8, !tbaa !3
  %13 = getelementptr inbounds nuw %struct.DdManager, ptr %12, i32 0, i32 55
  store i32 0, ptr %13, align 8, !tbaa !29
  %14 = load ptr, ptr %5, align 8, !tbaa !3
  %15 = call ptr @cuddHashTableInit(ptr noundef %14, i32 noundef 1, i32 noundef 2)
  store ptr %15, ptr %8, align 8, !tbaa !38
  %16 = load ptr, ptr %8, align 8, !tbaa !38
  %17 = icmp eq ptr %16, null
  br i1 %17, label %18, label %19

18:                                               ; preds = %11
  store ptr null, ptr %4, align 8
  store i32 1, ptr %10, align 4
  br label %55

19:                                               ; preds = %11
  %20 = load ptr, ptr %5, align 8, !tbaa !3
  %21 = load ptr, ptr %8, align 8, !tbaa !38
  %22 = load ptr, ptr %6, align 8, !tbaa !8
  %23 = load ptr, ptr %7, align 8, !tbaa !37
  %24 = call ptr @cuddAddPermuteRecur(ptr noundef %20, ptr noundef %21, ptr noundef %22, ptr noundef %23)
  store ptr %24, ptr %9, align 8, !tbaa !8
  %25 = load ptr, ptr %9, align 8, !tbaa !8
  %26 = icmp ne ptr %25, null
  br i1 %26, label %27, label %35

27:                                               ; preds = %19
  %28 = load ptr, ptr %9, align 8, !tbaa !8
  %29 = ptrtoint ptr %28 to i64
  %30 = and i64 %29, -2
  %31 = inttoptr i64 %30 to ptr
  %32 = getelementptr inbounds nuw %struct.DdNode, ptr %31, i32 0, i32 1
  %33 = load i32, ptr %32, align 4, !tbaa !35
  %34 = add i32 %33, 1
  store i32 %34, ptr %32, align 4, !tbaa !35
  br label %35

35:                                               ; preds = %27, %19
  %36 = load ptr, ptr %8, align 8, !tbaa !38
  call void @cuddHashTableQuit(ptr noundef %36)
  br label %37

37:                                               ; preds = %35
  %38 = load ptr, ptr %5, align 8, !tbaa !3
  %39 = getelementptr inbounds nuw %struct.DdManager, ptr %38, i32 0, i32 55
  %40 = load i32, ptr %39, align 8, !tbaa !29
  %41 = icmp eq i32 %40, 1
  br i1 %41, label %11, label %42, !llvm.loop !40

42:                                               ; preds = %37
  %43 = load ptr, ptr %9, align 8, !tbaa !8
  %44 = icmp ne ptr %43, null
  br i1 %44, label %45, label %53

45:                                               ; preds = %42
  %46 = load ptr, ptr %9, align 8, !tbaa !8
  %47 = ptrtoint ptr %46 to i64
  %48 = and i64 %47, -2
  %49 = inttoptr i64 %48 to ptr
  %50 = getelementptr inbounds nuw %struct.DdNode, ptr %49, i32 0, i32 1
  %51 = load i32, ptr %50, align 4, !tbaa !35
  %52 = add i32 %51, -1
  store i32 %52, ptr %50, align 4, !tbaa !35
  br label %53

53:                                               ; preds = %45, %42
  %54 = load ptr, ptr %9, align 8, !tbaa !8
  store ptr %54, ptr %4, align 8
  store i32 1, ptr %10, align 4
  br label %55

55:                                               ; preds = %53, %18
  call void @llvm.lifetime.end.p0(i64 8, ptr %9) #6
  call void @llvm.lifetime.end.p0(i64 8, ptr %8) #6
  %56 = load ptr, ptr %4, align 8
  ret ptr %56
}